; Function Attrs: mustprogress nofree norecurse nosync nounwind willreturn memory(readwrite, inaccessiblemem: none) uwtable
define dso_local void @lua_enablereadonlytable(ptr noundef captures(none) %0, i32 noundef %1, i32 noundef %2) local_unnamed_addr #6 {
  %4 = icmp sgt i32 %1, 0
  br i1 %4, label %5, label %13

5:                                                ; preds = %3
  %6 = getelementptr inbounds nuw i8, ptr %0, i64 24
  %7 = load ptr, ptr %6, align 8, !tbaa !21
  %8 = zext nneg i32 %1 to i64
  %9 = getelementptr %struct.lua_TValue, ptr %7, i64 %8
  %10 = getelementptr i8, ptr %9, i64 -16
  %11 = getelementptr inbounds nuw i8, ptr %0, i64 16
  %12 = load ptr, ptr %11, align 8, !tbaa !4
  %.not28.i = icmp ult ptr %10, %12
  %.luaO_nilobject_.i = select i1 %.not28.i, ptr %10, ptr @luaO_nilobject_
  br label %index2adr.exit

13:                                               ; preds = %3
  %14 = icmp sgt i32 %1, -10000
  br i1 %14, label %15, label %20

15:                                               ; preds = %13
  %16 = getelementptr inbounds nuw i8, ptr %0, i64 16
  %17 = load ptr, ptr %16, align 8, !tbaa !4
  %18 = sext i32 %1 to i64
  %19 = getelementptr inbounds %struct.lua_TValue, ptr %17, i64 %18
  br label %index2adr.exit

20:                                               ; preds = %13
  switch i32 %1, label %37 [
    i32 -10000, label %21
    i32 -10001, label %25
    i32 -10002, label %35
  ]

21:                                               ; preds = %20
  %22 = getelementptr inbounds nuw i8, ptr %0, i64 32
  %23 = load ptr, ptr %22, align 8, !tbaa !29
  %24 = getelementptr inbounds nuw i8, ptr %23, i64 160
  br label %index2adr.exit

25:                                               ; preds = %20
  %26 = getelementptr inbounds nuw i8, ptr %0, i64 40
  %27 = load ptr, ptr %26, align 8, !tbaa !23
  %28 = getelementptr inbounds nuw i8, ptr %27, i64 8
  %29 = load ptr, ptr %28, align 8, !tbaa !41
  %30 = load ptr, ptr %29, align 8, !tbaa !19
  %31 = getelementptr inbounds nuw i8, ptr %0, i64 136
  %32 = getelementptr inbounds nuw i8, ptr %30, i64 24
  %33 = load ptr, ptr %32, align 8, !tbaa !19
  store ptr %33, ptr %31, align 8, !tbaa !19
  %34 = getelementptr inbounds nuw i8, ptr %0, i64 144
  store i32 5, ptr %34, align 8, !tbaa !20
  br label %index2adr.exit

35:                                               ; preds = %20
  %36 = getelementptr inbounds nuw i8, ptr %0, i64 120
  br label %index2adr.exit

37:                                               ; preds = %20
  %38 = getelementptr inbounds nuw i8, ptr %0, i64 40
  %39 = load ptr, ptr %38, align 8, !tbaa !23
  %40 = getelementptr inbounds nuw i8, ptr %39, i64 8
  %41 = load ptr, ptr %40, align 8, !tbaa !41
  %42 = load ptr, ptr %41, align 8, !tbaa !19
  %43 = sub nuw nsw i32 -10002, %1
  %44 = getelementptr inbounds nuw i8, ptr %42, i64 11
  %45 = load i8, ptr %44, align 1, !tbaa !19
  %46 = zext i8 %45 to i32
  %.not.i = icmp samesign ugt i32 %43, %46
  %47 = getelementptr inbounds nuw i8, ptr %42, i64 40
  %48 = sub nuw nsw i32 -10003, %1
  %49 = zext nneg i32 %48 to i64
  %50 = getelementptr inbounds nuw [1 x %struct.lua_TValue], ptr %47, i64 0, i64 %49
  %51 = select i1 %.not.i, ptr @luaO_nilobject_, ptr %50
  br label %index2adr.exit

index2adr.exit:                                   ; preds = %5, %15, %21, %25, %35, %37
  %.1.i = phi ptr [ %.luaO_nilobject_.i, %5 ], [ %19, %15 ], [ %51, %37 ], [ %36, %35 ], [ %31, %25 ], [ %24, %21 ]
  %52 = load ptr, ptr %.1.i, align 8, !tbaa !19
  %53 = getelementptr inbounds nuw i8, ptr %52, i64 12
  store i32 %2, ptr %53, align 4, !tbaa !75
  ret void
}